target datalayout = "e-m:e-p270:32:32-p271:32:32-p272:64:64-i64:64-i128:128-f80:128-n8:16:32:64-S128"
target triple = "x86_64-pc-linux-gnu"

%struct.expert_field = type { i32, i32 }
%struct._packet_info = type { ptr, ptr, i32, i32, %struct.nstime_t, %struct.nstime_t, %struct.nstime_t, i8, ptr, ptr, ptr, ptr, %struct._address, %struct._address, %struct._address, %struct._address, %struct._address, %struct._address, i32, ptr, i8, [3 x i8], %struct.anon.1, i32, i32, i32, i32, ptr, i8, ptr, ptr, i16, i16, i32, i32, i16, i32, i32, ptr, ptr, ptr, i8, i8, i16, i16, i16, i32, i16, i16, ptr, ptr, ptr, ptr, ptr, i32, i32 }
%struct.nstime_t = type { i64, i32 }
%struct._address = type { i32, i32, ptr, ptr }
%struct.anon.1 = type { i8, [3 x i8] }

@hf_amqp_field = internal global i32 0, align 4
@ett_amqp = internal global i32 0, align 4
@ett_amqp_0_9_field = internal global i32 0, align 4
@ei_amqp_field_short = internal global %struct.expert_field zeroinitializer, align 4
@.str.1472 = private unnamed_addr constant [5 x i8] c"[%i]\00", align 1

; Function Attrs: null_pointer_is_valid sspstrong uwtable
define internal void @dissect_amqp_0_9_field_array(ptr noundef %0, ptr noundef %1, i32 noundef %2, i32 noundef %3, ptr noundef %4) #0 {
  %6 = alloca ptr, align 8
  %7 = alloca ptr, align 8
  %8 = alloca i32, align 4
  %9 = alloca i32, align 4
  %10 = alloca ptr, align 8
  %11 = alloca ptr, align 8
  %12 = alloca ptr, align 8
  %13 = alloca ptr, align 8
  %14 = alloca i32, align 4
  %15 = alloca i32, align 4
  %16 = alloca i32, align 4
  %17 = alloca ptr, align 8
  %18 = alloca i32, align 4
  store ptr %0, ptr %6, align 8
  store ptr %1, ptr %7, align 8
  store i32 %2, ptr %8, align 4
  store i32 %3, ptr %9, align 4
  store ptr %4, ptr %10, align 8
  call void @llvm.lifetime.start.p0(i64 8, ptr %11) #11
  call void @llvm.lifetime.start.p0(i64 8, ptr %12) #11
  call void @llvm.lifetime.start.p0(i64 8, ptr %13) #11
  call void @llvm.lifetime.start.p0(i64 4, ptr %14) #11
  call void @llvm.lifetime.start.p0(i64 4, ptr %15) #11
  call void @llvm.lifetime.start.p0(i64 4, ptr %16) #11
  call void @llvm.lifetime.start.p0(i64 8, ptr %17) #11
  %19 = load ptr, ptr %10, align 8
  %20 = load i32, ptr @ett_amqp, align 4
  %21 = call ptr @proto_item_add_subtree(ptr noundef %19, i32 noundef %20)
  store ptr %21, ptr %11, align 8
  store i32 0, ptr %15, align 4
  br label %22

22:                                               ; preds = %53, %5
  %23 = load i32, ptr %9, align 4
  %24 = icmp ne i32 %23, 0
  br i1 %24, label %25, label %62

25:                                               ; preds = %22
  %26 = load i32, ptr %8, align 4
  store i32 %26, ptr %14, align 4
  %27 = load ptr, ptr %11, align 8
  %28 = load i32, ptr @hf_amqp_field, align 4
  %29 = load ptr, ptr %6, align 8
  %30 = load i32, ptr %8, align 4
  %31 = load i32, ptr %15, align 4
  %32 = call ptr (ptr, i32, ptr, i32, i32, ptr, ...) @proto_tree_add_none_format(ptr noundef %27, i32 noundef %28, ptr noundef %29, i32 noundef %30, i32 noundef 0, ptr noundef @.str.1472, i32 noundef %31)
  store ptr %32, ptr %13, align 8
  %33 = load ptr, ptr %13, align 8
  %34 = load i32, ptr @ett_amqp_0_9_field, align 4
  %35 = call ptr @proto_item_add_subtree(ptr noundef %33, i32 noundef %34)
  store ptr %35, ptr %12, align 8
  %36 = load ptr, ptr %7, align 8
  %37 = getelementptr inbounds nuw %struct._packet_info, ptr %36, i32 0, i32 51
  %38 = load ptr, ptr %37, align 8
  %39 = load i32, ptr %15, align 4
  %40 = call noalias ptr (ptr, ptr, ...) @wmem_strdup_printf(ptr noundef %38, ptr noundef @.str.1472, i32 noundef %39)
  store ptr %40, ptr %17, align 8
  %41 = load ptr, ptr %7, align 8
  call void @increment_dissection_depth(ptr noundef %41)
  %42 = load ptr, ptr %6, align 8
  %43 = load ptr, ptr %7, align 8
  %44 = load i32, ptr %8, align 4
  %45 = load i32, ptr %9, align 4
  %46 = load ptr, ptr %17, align 8
  %47 = load ptr, ptr %12, align 8
  %48 = call i32 @dissect_amqp_0_9_field_value(ptr noundef %42, ptr noundef %43, i32 noundef %44, i32 noundef %45, ptr noundef %46, ptr noundef %47)
  store i32 %48, ptr %16, align 4
  %49 = load ptr, ptr %7, align 8
  call void @decrement_dissection_depth(ptr noundef %49)
  %50 = load i32, ptr %16, align 4
  %51 = icmp eq i32 %50, 0
  br i1 %51, label %52, label %53

52:                                               ; preds = %25
  br label %63

53:                                               ; preds = %25
  %54 = load i32, ptr %16, align 4
  %55 = load i32, ptr %8, align 4
  %56 = add i32 %55, %54
  store i32 %56, ptr %8, align 4
  %57 = load i32, ptr %16, align 4
  %58 = load i32, ptr %9, align 4
  %59 = sub i32 %58, %57
  store i32 %59, ptr %9, align 4
  %60 = load i32, ptr %15, align 4
  %61 = add i32 %60, 1
  store i32 %61, ptr %15, align 4
  br label %22, !llvm.loop !13

62:                                               ; preds = %22
  store i32 1, ptr %18, align 4
  br label %72

63:                                               ; preds = %52
  %64 = load ptr, ptr %11, align 8
  %65 = load ptr, ptr %7, align 8
  %66 = load ptr, ptr %6, align 8
  %67 = load i32, ptr %14, align 4
  %68 = load i32, ptr %8, align 4
  %69 = load i32, ptr %14, align 4
  %70 = sub i32 %68, %69
  %71 = call ptr @proto_tree_add_expert(ptr noundef %64, ptr noundef %65, ptr noundef @ei_amqp_field_short, ptr noundef %66, i32 noundef %67, i32 noundef %70)
  store i32 1, ptr %18, align 4
  br label %72

72:                                               ; preds = %63, %62
  call void @llvm.lifetime.end.p0(i64 8, ptr %17) #11
  call void @llvm.lifetime.end.p0(i64 4, ptr %16) #11
  call void @llvm.lifetime.end.p0(i64 4, ptr %15) #11
  call void @llvm.lifetime.end.p0(i64 4, ptr %14) #11
  call void @llvm.lifetime.end.p0(i64 8, ptr %13) #11
  call void @llvm.lifetime.end.p0(i64 8, ptr %12) #11
  call void @llvm.lifetime.end.p0(i64 8, ptr %11) #11
  ret void
}