; Function Attrs: null_pointer_is_valid sspstrong uwtable
define internal fastcc void @dissect_amqp_0_9_field_array(ptr noundef %0, ptr noundef %1, i32 noundef %2, i32 noundef range(i32 0, -5) %3) unnamed_addr #0 {
  %5 = load i32, ptr @ett_amqp, align 4
  %6 = tail call ptr @proto_item_add_subtree(ptr noundef null, i32 noundef %5)
  %.not2 = icmp eq i32 %3, 0
  br i1 %.not2, label %.loopexit, label %.lr.ph

.lr.ph:                                           ; preds = %4
  %7 = getelementptr inbounds nuw i8, ptr %1, i64 408
  br label %8

8:                                                ; preds = %.lr.ph, %17
  %.05 = phi i32 [ %2, %.lr.ph ], [ %18, %17 ]
  %.0294 = phi i32 [ %3, %.lr.ph ], [ %19, %17 ]
  %.0303 = phi i32 [ 0, %.lr.ph ], [ %20, %17 ]
  %9 = load i32, ptr @hf_amqp_field, align 4
  %10 = tail call ptr (ptr, i32, ptr, i32, i32, ptr, ...) @proto_tree_add_none_format(ptr noundef %6, i32 noundef %9, ptr noundef %0, i32 noundef %.05, i32 noundef 0, ptr noundef nonnull @.str.1472, i32 noundef %.0303)
  %11 = load i32, ptr @ett_amqp_0_9_field, align 4
  %12 = tail call ptr @proto_item_add_subtree(ptr noundef %10, i32 noundef %11)
  %13 = load ptr, ptr %7, align 8
  %14 = tail call noalias ptr (ptr, ptr, ...) @wmem_strdup_printf(ptr noundef %13, ptr noundef nonnull @.str.1472, i32 noundef %.0303)
  tail call void @increment_dissection_depth(ptr noundef %1)
  %15 = tail call fastcc i32 @dissect_amqp_0_9_field_value(ptr noundef %0, ptr noundef %1, i32 noundef %.05, i32 noundef %.0294, ptr noundef %12)
  tail call void @decrement_dissection_depth(ptr noundef %1)
  %16 = icmp eq i32 %15, 0
  br i1 %16, label %21, label %17

17:                                               ; preds = %8
  %18 = add i32 %15, %.05
  %19 = sub i32 %.0294, %15
  %20 = add i32 %.0303, 1
  %.not = icmp eq i32 %19, 0
  br i1 %.not, label %.loopexit, label %8, !llvm.loop !11

21:                                               ; preds = %8
  %22 = tail call ptr @proto_tree_add_expert(ptr noundef %6, ptr noundef %1, ptr noundef nonnull @ei_amqp_field_short, ptr noundef %0, i32 noundef %.05, i32 noundef 0)
  br label %.loopexit

.loopexit:                                        ; preds = %17, %4, %21
  ret void
}